target datalayout = "e-m:e-p270:32:32-p271:32:32-p272:64:64-i64:64-i128:128-f80:128-n8:16:32:64-S128"
target triple = "x86_64-pc-linux-gnu"

%struct._zend_executor_globals = type { %struct._zval_struct, %struct._zval_struct, [32 x ptr], ptr, ptr, %struct._zend_array, %struct._zend_array, ptr, i32, i32, ptr, ptr, ptr, ptr, ptr, ptr, i64, ptr, ptr, i32, i32, i64, i32, i32, i32, i8, i8, %struct.zend_atomic_bool_s, %struct.zend_atomic_bool_s, ptr, i64, ptr, ptr, %struct._zend_array, %struct._zend_array, i32, i8, %struct._zval_struct, %struct._zval_struct, %struct._zend_stack, %struct._zend_stack, %struct._zend_stack, ptr, i32, i32, i64, ptr, ptr, ptr, %struct._zend_objects_store, ptr, ptr, ptr, [3 x %struct._zend_op], ptr, i8, i8, i64, i32, i32, ptr, [16 x %struct._HashTableIterator], ptr, %union._zend_function, %struct._zend_op, %struct._zend_array, i64, %struct.zend_get_gc_buffer, ptr, ptr, ptr, i64, i8, i32, ptr, ptr, i64, %struct._zend_call_stack, i64, i64, [6 x ptr] }
%struct.zend_atomic_bool_s = type { i8 }
%struct._zval_struct = type { %union._zend_value, %union.anon, %union.anon.2 }
%union._zend_value = type { i64 }
%union.anon = type { i32 }
%union.anon.2 = type { i32 }
%struct._zend_stack = type { i32, i32, i32, ptr }
%struct._zend_objects_store = type { ptr, i32, i32, i32 }
%struct._HashTableIterator = type { ptr, i32, i32 }
%union._zend_function = type { %struct._zend_op_array }
%struct._zend_op_array = type { i8, [3 x i8], i32, ptr, ptr, ptr, i32, i32, ptr, ptr, ptr, ptr, i32, i32, i32, i32, ptr, ptr, ptr, ptr, ptr, i32, i32, ptr, ptr, ptr, i32, i32, i32, i32, ptr, ptr, [6 x ptr] }
%struct._zend_op = type { ptr, %union._znode_op, %union._znode_op, %union._znode_op, i32, i32, i8, i8, i8, i8 }
%union._znode_op = type { i32 }
%struct._zend_array = type { %struct._zend_refcounted_h, %union.anon.4, i32, %union.anon.6, i32, i32, i32, i32, i64, ptr }
%struct._zend_refcounted_h = type { i32, %union.anon.3 }
%union.anon.3 = type { i32 }
%union.anon.4 = type { i32 }
%union.anon.6 = type { ptr }
%struct.zend_get_gc_buffer = type { ptr, ptr, ptr }
%struct._zend_call_stack = type { ptr, i64 }

@executor_globals = external global %struct._zend_executor_globals, align 8

; Function Attrs: nounwind uwtable
define internal ptr @zend_call_stack_limit(ptr noundef %0, i64 noundef %1, i64 noundef %2) #0 {
  %4 = alloca ptr, align 8
  %5 = alloca ptr, align 8
  %6 = alloca i64, align 8
  %7 = alloca i64, align 8
  store ptr %0, ptr %5, align 8
  store i64 %1, ptr %6, align 8
  store i64 %2, ptr %7, align 8
  %8 = load i64, ptr %6, align 8
  %9 = load ptr, ptr %5, align 8
  %10 = ptrtoint ptr %9 to i64
  %11 = icmp ugt i64 %8, %10
  %12 = xor i1 %11, true
  %13 = xor i1 %12, true
  %14 = zext i1 %13 to i32
  %15 = sext i32 %14 to i64
  %16 = icmp ne i64 %15, 0
  br i1 %16, label %17, label %18

17:                                               ; preds = %3
  store ptr null, ptr %4, align 8
  br label %38

18:                                               ; preds = %3
  %19 = load ptr, ptr %5, align 8
  %20 = load i64, ptr %6, align 8
  %21 = sub i64 0, %20
  %22 = getelementptr inbounds i8, ptr %19, i64 %21
  store ptr %22, ptr %5, align 8
  %23 = load ptr, ptr %5, align 8
  %24 = ptrtoint ptr %23 to i64
  %25 = sub i64 -1, %24
  %26 = load i64, ptr %7, align 8
  %27 = icmp ult i64 %25, %26
  %28 = xor i1 %27, true
  %29 = xor i1 %28, true
  %30 = zext i1 %29 to i32
  %31 = sext i32 %30 to i64
  %32 = icmp ne i64 %31, 0
  br i1 %32, label %33, label %34

33:                                               ; preds = %18
  store ptr inttoptr (i64 -1 to ptr), ptr %4, align 8
  br label %38

34:                                               ; preds = %18
  %35 = load ptr, ptr %5, align 8
  %36 = load i64, ptr %7, align 8
  %37 = getelementptr inbounds i8, ptr %35, i64 %36
  store ptr %37, ptr %4, align 8
  br label %38

38:                                               ; preds = %34, %33, %17
  %39 = load ptr, ptr %4, align 8
  ret ptr %39
}

; Function Attrs: nounwind uwtable
define internal i64 @zend_call_stack_default_size() #0 {
  ret i64 8388608
}

; Function Attrs: nounwind uwtable
define void @zend_call_stack_init() #0 {
  %1 = alloca %struct._zend_call_stack, align 8
  %2 = alloca ptr, align 8
  %3 = alloca i64, align 8
  %4 = alloca ptr, align 8
  %5 = call zeroext i1 @zend_call_stack_get(ptr noundef getelementptr inbounds (%struct._zend_executor_globals, ptr @executor_globals, i32 0, i32 77))
  br i1 %5, label %9, label %6

6:                                                ; preds = %0
  %7 = getelementptr inbounds %struct._zend_call_stack, ptr %1, i32 0, i32 0
  store ptr null, ptr %7, align 8
  %8 = getelementptr inbounds %struct._zend_call_stack, ptr %1, i32 0, i32 1
  store i64 0, ptr %8, align 8
  call void @llvm.memcpy.p0.p0.i64(ptr align 8 getelementptr inbounds (%struct._zend_executor_globals, ptr @executor_globals, i32 0, i32 77), ptr align 8 %1, i64 16, i1 false)
  br label %9

9:                                                ; preds = %6, %0
  %10 = load i64, ptr getelementptr inbounds (%struct._zend_executor_globals, ptr @executor_globals, i32 0, i32 78), align 8
  switch i64 %10, label %33 [
    i64 0, label %11
    i64 -1, label %32
  ]

11:                                               ; preds = %9
  %12 = load ptr, ptr getelementptr inbounds (%struct._zend_executor_globals, ptr @executor_globals, i32 0, i32 77), align 8
  store ptr %12, ptr %2, align 8
  %13 = load i64, ptr getelementptr inbounds (%struct._zend_executor_globals, ptr @executor_globals, i32 0, i32 77, i32 1), align 8
  store i64 %13, ptr %3, align 8
  %14 = load ptr, ptr %2, align 8
  %15 = icmp eq ptr %14, null
  %16 = xor i1 %15, true
  %17 = xor i1 %16, true
  %18 = zext i1 %17 to i32
  %19 = sext i32 %18 to i64
  %20 = icmp ne i64 %19, 0
  br i1 %20, label %21, label %26

21:                                               ; preds = %11
  %22 = call ptr @llvm.frameaddress.p0(i32 0)
  store ptr %22, ptr %2, align 8
  %23 = call i64 @zend_call_stack_default_size()
  store i64 %23, ptr %3, align 8
  %24 = load i64, ptr %3, align 8
  %25 = sub i64 %24, 32768
  store i64 %25, ptr %3, align 8
  br label %26

26:                                               ; preds = %21, %11
  %27 = load ptr, ptr %2, align 8
  store ptr %27, ptr getelementptr inbounds (%struct._zend_executor_globals, ptr @executor_globals, i32 0, i32 31), align 8
  %28 = load ptr, ptr %2, align 8
  %29 = load i64, ptr %3, align 8
  %30 = load i64, ptr getelementptr inbounds (%struct._zend_executor_globals, ptr @executor_globals, i32 0, i32 79), align 8
  %31 = call ptr @zend_call_stack_limit(ptr noundef %28, i64 noundef %29, i64 noundef %30)
  store ptr %31, ptr getelementptr inbounds (%struct._zend_executor_globals, ptr @executor_globals, i32 0, i32 32), align 8
  br label %52

32:                                               ; preds = %9
  store ptr null, ptr getelementptr inbounds (%struct._zend_executor_globals, ptr @executor_globals, i32 0, i32 31), align 8
  store ptr null, ptr getelementptr inbounds (%struct._zend_executor_globals, ptr @executor_globals, i32 0, i32 32), align 8
  br label %52

33:                                               ; preds = %9
  %34 = load i64, ptr getelementptr inbounds (%struct._zend_executor_globals, ptr @executor_globals, i32 0, i32 78), align 8
  %35 = icmp sgt i64 %34, 0
  call void @llvm.assume(i1 %35)
  %36 = load ptr, ptr getelementptr inbounds (%struct._zend_executor_globals, ptr @executor_globals, i32 0, i32 77), align 8
  store ptr %36, ptr %4, align 8
  %37 = load ptr, ptr %4, align 8
  %38 = icmp eq ptr %37, null
  %39 = xor i1 %38, true
  %40 = xor i1 %39, true
  %41 = zext i1 %40 to i32
  %42 = sext i32 %41 to i64
  %43 = icmp ne i64 %42, 0
  br i1 %43, label %44, label %46

44:                                               ; preds = %33
  %45 = call ptr @llvm.frameaddress.p0(i32 0)
  store ptr %45, ptr %4, align 8
  br label %46

46:                                               ; preds = %44, %33
  %47 = load ptr, ptr %4, align 8
  store ptr %47, ptr getelementptr inbounds (%struct._zend_executor_globals, ptr @executor_globals, i32 0, i32 31), align 8
  %48 = load ptr, ptr %4, align 8
  %49 = load i64, ptr getelementptr inbounds (%struct._zend_executor_globals, ptr @executor_globals, i32 0, i32 78), align 8
  %50 = load i64, ptr getelementptr inbounds (%struct._zend_executor_globals, ptr @executor_globals, i32 0, i32 79), align 8
  %51 = call ptr @zend_call_stack_limit(ptr noundef %48, i64 noundef %49, i64 noundef %50)
  store ptr %51, ptr getelementptr inbounds (%struct._zend_executor_globals, ptr @executor_globals, i32 0, i32 32), align 8
  br label %52

52:                                               ; preds = %46, %32, %26
  ret void
}